target datalayout = "e-m:e-p270:32:32-p271:32:32-p272:64:64-i64:64-i128:128-f80:128-n8:16:32:64-S128"
target triple = "x86_64-pc-linux-gnu"

%struct.ssl_st = type { i32, ptr, ptr, ptr, %struct.CRYPTO_REF_COUNT, ptr, %struct.crypto_ex_data_st }
%struct.CRYPTO_REF_COUNT = type { i32 }
%struct.crypto_ex_data_st = type { ptr, ptr }
%struct.ssl_connection_st = type { %struct.ssl_st, ptr, i32, ptr, ptr, ptr, i32, ptr, i32, i32, i32, i32, %struct.OSSL_TIME, %struct.OSSL_TIME, %struct.ossl_statem_st, i32, ptr, ptr, i64, i64, i64, %struct.ossl_quic_tls_callbacks_st, ptr, ptr, %struct.anon, ptr, ptr, ptr, i32, ptr, %struct.ssl_dane_st, ptr, ptr, ptr, ptr, i32, [64 x i8], [64 x i8], [64 x i8], [64 x i8], [64 x i8], [64 x i8], [64 x i8], [64 x i8], [64 x i8], [64 x i8], [64 x i8], [64 x i8], ptr, [64 x i8], i64, i32, i64, [32 x i8], ptr, ptr, ptr, i64, ptr, [32 x i8], i64, i32, ptr, ptr, i32, i32, ptr, ptr, ptr, ptr, ptr, i64, ptr, ptr, i64, i32, i32, i32, i64, i32, i32, i64, i64, i64, %struct.anon.1, ptr, i32, ptr, ptr, ptr, i32, ptr, ptr, ptr, i32, i32, i32, i32, ptr, i64, i32, ptr, %struct.srp_ctx_st, ptr, %struct.record_layer_st, ptr, ptr, ptr, ptr, i64, i32, i32, i32, i64, i64, i64, ptr, ptr, ptr, ptr, ptr, i64, ptr, i64, ptr, i64 }
%struct.OSSL_TIME = type { i64 }
%struct.ossl_statem_st = type { i32, i32, i32, i32, i32, i32, i32, i32, i32, i32, i32, i32, i32, ptr, ptr, ptr, i8 }
%struct.ossl_quic_tls_callbacks_st = type { ptr, ptr, ptr, ptr, ptr, ptr }
%struct.anon = type { i64, [32 x i8], [32 x i8], ptr, ptr, i32, i32, i32, i32, [2 x i8], i32, i32, i32, i32, %struct.anon.0, [64 x i8], i64, [64 x i8], i64, i32, i32, ptr, i64, ptr, i64, i32, i8, i8, i16, ptr, i16 }
%struct.anon.0 = type { [128 x i8], i64, [128 x i8], i64, i64, i32, ptr, ptr, [4 x ptr], [4 x i16], i64, i32, ptr, i64, ptr, i64, ptr, ptr, ptr, i32, i64, ptr, i32, ptr, i64, ptr, i64, ptr, i64, ptr, ptr, ptr, ptr, i64, i64, ptr, ptr, i32, i32, i32, i32 }
%struct.ssl_dane_st = type { ptr, ptr, ptr, ptr, ptr, i32, i32, i32, i64 }
%struct.anon.1 = type { [29 x i8], ptr, ptr, ptr, i32, ptr, i16, i32, %struct.anon.2, i32, i32, i64, ptr, i64, ptr, i64, ptr, i64, ptr, i64, ptr, i64, ptr, ptr, ptr, ptr, ptr, ptr, ptr, i64, ptr, i64, i32, i32, i32, i32, ptr, i64, i32, i8, i32, [4 x i32], i32, i8, i8, i8, i8 }
%struct.anon.2 = type { ptr, ptr, ptr, i64 }
%struct.srp_ctx_st = type { ptr, ptr, ptr, ptr, ptr, ptr, ptr, ptr, ptr, ptr, ptr, ptr, ptr, ptr, i32, i64 }
%struct.record_layer_st = type { ptr, ptr, ptr, ptr, ptr, ptr, ptr, ptr, i64, i32, i64, [4 x i8], i64, i64, i8, ptr, i32, ptr, ptr, ptr, i64, i64, i64, i64, [32 x %struct.tls_record_st] }
%struct.tls_record_st = type { ptr, i32, i8, ptr, ptr, i64, i64, i16, [8 x i8] }
%struct.PACKET = type { ptr, i64 }

@.str = private unnamed_addr constant [35 x i8] c"../openssl/ssl/statem/statem_lib.c\00", align 1
@__func__.tls_process_key_update = private unnamed_addr constant [23 x i8] c"tls_process_key_update\00", align 1

; Function Attrs: inlinehint nounwind uwtable
define internal void @packet_forward(ptr noundef %0, i64 noundef %1) #5 {
  %3 = alloca ptr, align 8
  %4 = alloca i64, align 8
  store ptr %0, ptr %3, align 8, !tbaa !8
  store i64 %1, ptr %4, align 8, !tbaa !76
  %5 = load i64, ptr %4, align 8, !tbaa !76
  %6 = load ptr, ptr %3, align 8, !tbaa !8
  %7 = getelementptr inbounds nuw %struct.PACKET, ptr %6, i32 0, i32 0
  %8 = load ptr, ptr %7, align 8, !tbaa !197
  %9 = getelementptr inbounds nuw i8, ptr %8, i64 %5
  store ptr %9, ptr %7, align 8, !tbaa !197
  %10 = load i64, ptr %4, align 8, !tbaa !76
  %11 = load ptr, ptr %3, align 8, !tbaa !8
  %12 = getelementptr inbounds nuw %struct.PACKET, ptr %11, i32 0, i32 1
  %13 = load i64, ptr %12, align 8, !tbaa !164
  %14 = sub i64 %13, %10
  store i64 %14, ptr %12, align 8, !tbaa !164
  ret void
}

; Function Attrs: inlinehint nounwind uwtable
define internal i32 @PACKET_peek_1(ptr noundef %0, ptr noundef %1) #5 {
  %3 = alloca i32, align 4
  %4 = alloca ptr, align 8
  %5 = alloca ptr, align 8
  store ptr %0, ptr %4, align 8, !tbaa !8
  store ptr %1, ptr %5, align 8, !tbaa !119
  %6 = load ptr, ptr %4, align 8, !tbaa !8
  %7 = call i64 @PACKET_remaining(ptr noundef %6)
  %8 = icmp ne i64 %7, 0
  br i1 %8, label %10, label %9

9:                                                ; preds = %2
  store i32 0, ptr %3, align 4
  br label %17

10:                                               ; preds = %2
  %11 = load ptr, ptr %4, align 8, !tbaa !8
  %12 = getelementptr inbounds nuw %struct.PACKET, ptr %11, i32 0, i32 0
  %13 = load ptr, ptr %12, align 8, !tbaa !197
  %14 = load i8, ptr %13, align 1, !tbaa !75
  %15 = zext i8 %14 to i32
  %16 = load ptr, ptr %5, align 8, !tbaa !119
  store i32 %15, ptr %16, align 4, !tbaa !85
  store i32 1, ptr %3, align 4
  br label %17

17:                                               ; preds = %10, %9
  %18 = load i32, ptr %3, align 4
  ret i32 %18
}

; Function Attrs: inlinehint nounwind uwtable
define internal i64 @PACKET_remaining(ptr noundef %0) #5 {
  %2 = alloca ptr, align 8
  store ptr %0, ptr %2, align 8, !tbaa !8
  %3 = load ptr, ptr %2, align 8, !tbaa !8
  %4 = getelementptr inbounds nuw %struct.PACKET, ptr %3, i32 0, i32 1
  %5 = load i64, ptr %4, align 8, !tbaa !164
  ret i64 %5
}

; Function Attrs: inlinehint nounwind uwtable
define internal i32 @PACKET_get_1(ptr noundef %0, ptr noundef %1) #5 {
  %3 = alloca i32, align 4
  %4 = alloca ptr, align 8
  %5 = alloca ptr, align 8
  store ptr %0, ptr %4, align 8, !tbaa !8
  store ptr %1, ptr %5, align 8, !tbaa !119
  %6 = load ptr, ptr %4, align 8, !tbaa !8
  %7 = load ptr, ptr %5, align 8, !tbaa !119
  %8 = call i32 @PACKET_peek_1(ptr noundef %6, ptr noundef %7)
  %9 = icmp ne i32 %8, 0
  br i1 %9, label %11, label %10

10:                                               ; preds = %2
  store i32 0, ptr %3, align 4
  br label %13

11:                                               ; preds = %2
  %12 = load ptr, ptr %4, align 8, !tbaa !8
  call void @packet_forward(ptr noundef %12, i64 noundef 1)
  store i32 1, ptr %3, align 4
  br label %13

13:                                               ; preds = %11, %10
  %14 = load i32, ptr %3, align 4
  ret i32 %14
}

; Function Attrs: nounwind uwtable
define i32 @tls_process_key_update(ptr noundef %0, ptr noundef %1) #0 {
  %3 = alloca i32, align 4
  %4 = alloca ptr, align 8
  %5 = alloca ptr, align 8
  %6 = alloca i32, align 4
  %7 = alloca i32, align 4
  store ptr %0, ptr %4, align 8, !tbaa !18
  store ptr %1, ptr %5, align 8, !tbaa !8
  call void @llvm.lifetime.start.p0(i64 4, ptr %6) #9
  %8 = load ptr, ptr %4, align 8, !tbaa !18
  %9 = getelementptr inbounds nuw %struct.ssl_connection_st, ptr %8, i32 0, i32 104
  %10 = call i32 @RECORD_LAYER_processed_read_pending(ptr noundef %9)
  %11 = icmp ne i32 %10, 0
  br i1 %11, label %12, label %14

12:                                               ; preds = %2
  call void @ERR_new()
  call void @ERR_set_debug(ptr noundef @.str, i32 noundef 712, ptr noundef @__func__.tls_process_key_update)
  %13 = load ptr, ptr %4, align 8, !tbaa !18
  call void (ptr, i32, i32, ptr, ...) @ossl_statem_fatal(ptr noundef %13, i32 noundef 10, i32 noundef 182, ptr noundef null)
  store i32 0, ptr %3, align 4
  store i32 1, ptr %7, align 4
  br label %44

14:                                               ; preds = %2
  %15 = load ptr, ptr %5, align 8, !tbaa !8
  %16 = call i32 @PACKET_get_1(ptr noundef %15, ptr noundef %6)
  %17 = icmp ne i32 %16, 0
  br i1 %17, label %18, label %22

18:                                               ; preds = %14
  %19 = load ptr, ptr %5, align 8, !tbaa !8
  %20 = call i64 @PACKET_remaining(ptr noundef %19)
  %21 = icmp ne i64 %20, 0
  br i1 %21, label %22, label %24

22:                                               ; preds = %18, %14
  call void @ERR_new()
  call void @ERR_set_debug(ptr noundef @.str, i32 noundef 718, ptr noundef @__func__.tls_process_key_update)
  %23 = load ptr, ptr %4, align 8, !tbaa !18
  call void (ptr, i32, i32, ptr, ...) @ossl_statem_fatal(ptr noundef %23, i32 noundef 50, i32 noundef 122, ptr noundef null)
  store i32 0, ptr %3, align 4
  store i32 1, ptr %7, align 4
  br label %44

24:                                               ; preds = %18
  %25 = load i32, ptr %6, align 4, !tbaa !85
  %26 = icmp ne i32 %25, 0
  br i1 %26, label %27, label %32

27:                                               ; preds = %24
  %28 = load i32, ptr %6, align 4, !tbaa !85
  %29 = icmp ne i32 %28, 1
  br i1 %29, label %30, label %32

30:                                               ; preds = %27
  call void @ERR_new()
  call void @ERR_set_debug(ptr noundef @.str, i32 noundef 728, ptr noundef @__func__.tls_process_key_update)
  %31 = load ptr, ptr %4, align 8, !tbaa !18
  call void (ptr, i32, i32, ptr, ...) @ossl_statem_fatal(ptr noundef %31, i32 noundef 47, i32 noundef 122, ptr noundef null)
  store i32 0, ptr %3, align 4
  store i32 1, ptr %7, align 4
  br label %44

32:                                               ; preds = %27, %24
  %33 = load i32, ptr %6, align 4, !tbaa !85
  %34 = icmp eq i32 %33, 1
  br i1 %34, label %35, label %38

35:                                               ; preds = %32
  %36 = load ptr, ptr %4, align 8, !tbaa !18
  %37 = getelementptr inbounds nuw %struct.ssl_connection_st, ptr %36, i32 0, i32 95
  store i32 0, ptr %37, align 4, !tbaa !180
  br label %38

38:                                               ; preds = %35, %32
  %39 = load ptr, ptr %4, align 8, !tbaa !18
  %40 = call i32 @tls13_update_key(ptr noundef %39, i32 noundef 0)
  %41 = icmp ne i32 %40, 0
  br i1 %41, label %43, label %42

42:                                               ; preds = %38
  store i32 0, ptr %3, align 4
  store i32 1, ptr %7, align 4
  br label %44

43:                                               ; preds = %38
  store i32 1, ptr %3, align 4
  store i32 1, ptr %7, align 4
  br label %44

44:                                               ; preds = %43, %42, %30, %22, %12
  call void @llvm.lifetime.end.p0(i64 4, ptr %6) #9
  %45 = load i32, ptr %3, align 4
  ret i32 %45
}