; Function Attrs: nounwind uwtable
define range(i32 0, 2) i32 @tls_process_key_update(ptr noundef %0, ptr noundef captures(none) %1) local_unnamed_addr #0 {
  %3 = getelementptr inbounds nuw i8, ptr %0, i64 3160
  %4 = tail call i32 @RECORD_LAYER_processed_read_pending(ptr noundef nonnull %3) #11
  %.not = icmp eq i32 %4, 0
  br i1 %.not, label %6, label %5

5:                                                ; preds = %2
  tail call void @ERR_new() #11
  tail call void @ERR_set_debug(ptr noundef nonnull @.str, i32 noundef 712, ptr noundef nonnull @__func__.tls_process_key_update) #11
  tail call void (ptr, i32, i32, ptr, ...) @ossl_statem_fatal(ptr noundef nonnull %0, i32 noundef 10, i32 noundef 182, ptr noundef null) #11
  br label %21

6:                                                ; preds = %2
  %7 = getelementptr i8, ptr %1, i64 8
  %.val.i.i = load i64, ptr %7, align 8, !tbaa !145
  %.not.i.i = icmp eq i64 %.val.i.i, 0
  br i1 %.not.i.i, label %PACKET_get_1.exit.thread, label %8

8:                                                ; preds = %6
  %9 = load ptr, ptr %1, align 8, !tbaa !147
  %10 = load i8, ptr %9, align 1, !tbaa !148
  %11 = getelementptr inbounds nuw i8, ptr %9, i64 1
  store ptr %11, ptr %1, align 8, !tbaa !147
  %12 = add i64 %.val.i.i, -1
  store i64 %12, ptr %7, align 8, !tbaa !145
  %.not10 = icmp eq i64 %12, 0
  br i1 %.not10, label %13, label %PACKET_get_1.exit.thread

PACKET_get_1.exit.thread:                         ; preds = %6, %8
  tail call void @ERR_new() #11
  tail call void @ERR_set_debug(ptr noundef nonnull @.str, i32 noundef 718, ptr noundef nonnull @__func__.tls_process_key_update) #11
  tail call void (ptr, i32, i32, ptr, ...) @ossl_statem_fatal(ptr noundef nonnull %0, i32 noundef 50, i32 noundef 122, ptr noundef null) #11
  br label %21

13:                                               ; preds = %8
  %or.cond = icmp ugt i8 %10, 1
  br i1 %or.cond, label %14, label %15

14:                                               ; preds = %13
  tail call void @ERR_new() #11
  tail call void @ERR_set_debug(ptr noundef nonnull @.str, i32 noundef 728, ptr noundef nonnull @__func__.tls_process_key_update) #11
  tail call void (ptr, i32, i32, ptr, ...) @ossl_statem_fatal(ptr noundef nonnull %0, i32 noundef 47, i32 noundef 122, ptr noundef null) #11
  br label %21

15:                                               ; preds = %13
  %16 = icmp eq i8 %10, 1
  br i1 %16, label %17, label %19

17:                                               ; preds = %15
  %18 = getelementptr inbounds nuw i8, ptr %0, i64 2980
  store i32 0, ptr %18, align 4, !tbaa !158
  br label %19

19:                                               ; preds = %17, %15
  %20 = tail call i32 @tls13_update_key(ptr noundef nonnull %0, i32 noundef 0) #11
  %.not11 = icmp ne i32 %20, 0
  %. = zext i1 %.not11 to i32
  br label %21

21:                                               ; preds = %19, %14, %PACKET_get_1.exit.thread, %5
  %.0 = phi i32 [ 0, %5 ], [ 0, %PACKET_get_1.exit.thread ], [ 0, %14 ], [ %., %19 ]
  ret i32 %.0
}